target datalayout = "e-m:e-p270:32:32-p271:32:32-p272:64:64-i64:64-i128:128-f80:128-n8:16:32:64-S128"
target triple = "x86_64-pc-linux-gnu"

%struct.ResourceOwnerDesc = type { ptr, i32, i32, ptr, ptr }
%struct.CachedPlan = type { i32, ptr, i8, i8, i8, i32, i8, i32, i32, i32, ptr }

@planref_resowner_desc = internal constant %struct.ResourceOwnerDesc { ptr @.str.11, i32 3, i32 300, ptr @ResOwnerReleaseCachedPlan, ptr null }, align 8

; Function Attrs: inlinehint nounwind uwtable
define internal i64 @PointerGetDatum(ptr noundef %0) #3 {
  %2 = alloca ptr, align 8
  store ptr %0, ptr %2, align 8
  %3 = load ptr, ptr %2, align 8
  %4 = ptrtoint ptr %3 to i64
  ret i64 %4
}

; Function Attrs: inlinehint nounwind uwtable
define internal void @ResourceOwnerForgetPlanCacheRef(ptr noundef %0, ptr noundef %1) #3 {
  %3 = alloca ptr, align 8
  %4 = alloca ptr, align 8
  store ptr %0, ptr %3, align 8
  store ptr %1, ptr %4, align 8
  %5 = load ptr, ptr %3, align 8
  %6 = load ptr, ptr %4, align 8
  %7 = call i64 @PointerGetDatum(ptr noundef %6)
  call void @ResourceOwnerForget(ptr noundef %5, i64 noundef %7, ptr noundef @planref_resowner_desc)
  ret void
}

; Function Attrs: nounwind uwtable
define dso_local void @ReleaseCachedPlan(ptr noundef %0, ptr noundef %1) #0 {
  %3 = alloca ptr, align 8
  %4 = alloca ptr, align 8
  store ptr %0, ptr %3, align 8
  store ptr %1, ptr %4, align 8
  %5 = load ptr, ptr %4, align 8
  %6 = icmp ne ptr %5, null
  br i1 %6, label %7, label %10

7:                                                ; preds = %2
  %8 = load ptr, ptr %4, align 8
  %9 = load ptr, ptr %3, align 8
  call void @ResourceOwnerForgetPlanCacheRef(ptr noundef %8, ptr noundef %9)
  br label %10

10:                                               ; preds = %7, %2
  %11 = load ptr, ptr %3, align 8
  %12 = getelementptr inbounds nuw %struct.CachedPlan, ptr %11, i32 0, i32 9
  %13 = load i32, ptr %12, align 4
  %14 = add i32 %13, -1
  store i32 %14, ptr %12, align 4
  %15 = load ptr, ptr %3, align 8
  %16 = getelementptr inbounds nuw %struct.CachedPlan, ptr %15, i32 0, i32 9
  %17 = load i32, ptr %16, align 4
  %18 = icmp eq i32 %17, 0
  br i1 %18, label %19, label %31

19:                                               ; preds = %10
  %20 = load ptr, ptr %3, align 8
  %21 = getelementptr inbounds nuw %struct.CachedPlan, ptr %20, i32 0, i32 0
  store i32 0, ptr %21, align 8
  %22 = load ptr, ptr %3, align 8
  %23 = getelementptr inbounds nuw %struct.CachedPlan, ptr %22, i32 0, i32 2
  %24 = load i8, ptr %23, align 8, !range !4, !noundef !5
  %25 = trunc i8 %24 to i1
  br i1 %25, label %30, label %26

26:                                               ; preds = %19
  %27 = load ptr, ptr %3, align 8
  %28 = getelementptr inbounds nuw %struct.CachedPlan, ptr %27, i32 0, i32 10
  %29 = load ptr, ptr %28, align 8
  call void @MemoryContextDelete(ptr noundef %29)
  br label %30

30:                                               ; preds = %26, %19
  br label %31

31:                                               ; preds = %30, %10
  ret void
}

; Function Attrs: inlinehint nounwind uwtable
define internal ptr @DatumGetPointer(i64 noundef %0) #3 {
  %2 = alloca i64, align 8
  store i64 %0, ptr %2, align 8
  %3 = load i64, ptr %2, align 8
  %4 = inttoptr i64 %3 to ptr
  ret ptr %4
}

; Function Attrs: nounwind uwtable
define internal void @ResOwnerReleaseCachedPlan(i64 noundef %0) #0 {
  %2 = alloca i64, align 8
  store i64 %0, ptr %2, align 8
  %3 = load i64, ptr %2, align 8
  %4 = call ptr @DatumGetPointer(i64 noundef %3)
  call void @ReleaseCachedPlan(ptr noundef %4, ptr noundef null)
  ret void
}