; Function Attrs: nounwind uwtable
define internal void @ResOwnerReleaseCachedPlan(i64 noundef %0) #0 {
  %2 = inttoptr i64 %0 to ptr
  %3 = getelementptr inbounds nuw i8, ptr %2, i64 36
  %4 = load i32, ptr %3, align 4
  %5 = add i32 %4, -1
  store i32 %5, ptr %3, align 4
  %6 = icmp eq i32 %5, 0
  br i1 %6, label %7, label %ReleaseCachedPlan.exit

7:                                                ; preds = %1
  store i32 0, ptr %2, align 8
  %8 = getelementptr inbounds nuw i8, ptr %2, i64 16
  %9 = load i8, ptr %8, align 8, !range !4, !noundef !5
  %10 = trunc nuw i8 %9 to i1
  br i1 %10, label %ReleaseCachedPlan.exit, label %11

11:                                               ; preds = %7
  %12 = getelementptr inbounds nuw i8, ptr %2, i64 40
  %13 = load ptr, ptr %12, align 8
  tail call void @MemoryContextDelete(ptr noundef %13) #9
  br label %ReleaseCachedPlan.exit

ReleaseCachedPlan.exit:                           ; preds = %1, %7, %11
  ret void
}